target datalayout = "e-m:e-p270:32:32-p271:32:32-p272:64:64-i64:64-i128:128-f80:128-n8:16:32:64-S128"
target triple = "x86_64-pc-linux-gnu"

%"struct.cv::softfloat" = type { i32 }

; Function Attrs: mustprogress nounwind uwtable
define linkonce_odr hidden void @_ZN2cv9softfloatC2Ev(ptr noundef nonnull align 4 dereferenceable(4) %0) unnamed_addr #1 comdat align 2 {
  %2 = alloca ptr, align 8
  store ptr %0, ptr %2, align 8
  %3 = load ptr, ptr %2, align 8
  %4 = getelementptr inbounds %"struct.cv::softfloat", ptr %3, i32 0, i32 0
  store i32 0, ptr %4, align 4
  ret void
}

; Function Attrs: mustprogress uwtable
define linkonce_odr hidden void @_ZN2cv9softfloat7fromRawEj(ptr dead_on_unwind noalias writable sret(%"struct.cv::softfloat") align 4 %0, i32 noundef %1) #0 comdat align 2 {
  %3 = alloca ptr, align 8
  %4 = alloca i32, align 4
  store ptr %0, ptr %3, align 8
  store i32 %1, ptr %4, align 4
  call void @_ZN2cv9softfloatC2Ev(ptr noundef nonnull align 4 dereferenceable(4) %0)
  %5 = load i32, ptr %4, align 4
  %6 = getelementptr inbounds %"struct.cv::softfloat", ptr %0, i32 0, i32 0
  store i32 %5, ptr %6, align 4
  ret void
}

; Function Attrs: mustprogress nounwind uwtable
define linkonce_odr hidden noundef nonnull align 4 dereferenceable(4) ptr @_ZN2cv9softfloataSERKS0_(ptr noundef nonnull align 4 dereferenceable(4) %0, ptr noundef nonnull align 4 dereferenceable(4) %1) #1 comdat align 2 {
  %3 = alloca ptr, align 8
  %4 = alloca ptr, align 8
  store ptr %0, ptr %3, align 8
  store ptr %1, ptr %4, align 8
  %5 = load ptr, ptr %3, align 8
  %6 = load ptr, ptr %4, align 8
  %7 = icmp ne ptr %6, %5
  br i1 %7, label %8, label %13

8:                                                ; preds = %2
  %9 = load ptr, ptr %4, align 8
  %10 = getelementptr inbounds %"struct.cv::softfloat", ptr %9, i32 0, i32 0
  %11 = load i32, ptr %10, align 4
  %12 = getelementptr inbounds %"struct.cv::softfloat", ptr %5, i32 0, i32 0
  store i32 %11, ptr %12, align 4
  br label %13

13:                                               ; preds = %8, %2
  ret ptr %5
}

; Function Attrs: mustprogress uwtable
define internal void @_ZN2cvL10i32_to_f32Ei(ptr dead_on_unwind noalias writable sret(%"struct.cv::softfloat") align 4 %0, i32 noundef %1) #0 {
  %3 = alloca ptr, align 8
  %4 = alloca i32, align 4
  %5 = alloca i8, align 1
  %6 = alloca i64, align 8
  store ptr %0, ptr %3, align 8
  store i32 %1, ptr %4, align 4
  %7 = load i32, ptr %4, align 4
  %8 = icmp slt i32 %7, 0
  %9 = zext i1 %8 to i8
  store i8 %9, ptr %5, align 1
  %10 = load i32, ptr %4, align 4
  %11 = and i32 %10, 2147483647
  %12 = icmp ne i32 %11, 0
  br i1 %12, label %17, label %13

13:                                               ; preds = %2
  %14 = load i8, ptr %5, align 1
  %15 = trunc i8 %14 to i1
  %16 = select i1 %15, i32 -822083584, i32 0
  call void @_ZN2cv9softfloat7fromRawEj(ptr dead_on_unwind writable sret(%"struct.cv::softfloat") align 4 %0, i32 noundef %16)
  br label %33

17:                                               ; preds = %2
  %18 = load i8, ptr %5, align 1
  %19 = trunc i8 %18 to i1
  br i1 %19, label %20, label %25

20:                                               ; preds = %17
  %21 = load i32, ptr %4, align 4
  %22 = sext i32 %21 to i64
  %23 = xor i64 %22, -1
  %24 = add i64 %23, 1
  br label %28

25:                                               ; preds = %17
  %26 = load i32, ptr %4, align 4
  %27 = sext i32 %26 to i64
  br label %28

28:                                               ; preds = %25, %20
  %29 = phi i64 [ %24, %20 ], [ %27, %25 ]
  store i64 %29, ptr %6, align 8
  %30 = load i8, ptr %5, align 1
  %31 = trunc i8 %30 to i1
  %32 = load i64, ptr %6, align 8
  call void @_ZN2cvL28softfloat_normRoundPackToF32Eblm(ptr dead_on_unwind writable sret(%"struct.cv::softfloat") align 4 %0, i1 noundef zeroext %31, i64 noundef 156, i64 noundef %32)
  br label %33

33:                                               ; preds = %28, %13
  ret void
}

; Function Attrs: mustprogress uwtable
define void @_ZN2cv9softfloatC2Ei(ptr noundef nonnull align 4 dereferenceable(4) %0, i32 noundef %1) unnamed_addr #0 align 2 {
  %3 = alloca ptr, align 8
  %4 = alloca i32, align 4
  %5 = alloca %"struct.cv::softfloat", align 4
  store ptr %0, ptr %3, align 8
  store i32 %1, ptr %4, align 4
  %6 = load ptr, ptr %3, align 8
  %7 = load i32, ptr %4, align 4
  call void @_ZN2cvL10i32_to_f32Ei(ptr dead_on_unwind writable sret(%"struct.cv::softfloat") align 4 %5, i32 noundef %7)
  %8 = call noundef nonnull align 4 dereferenceable(4) ptr @_ZN2cv9softfloataSERKS0_(ptr noundef nonnull align 4 dereferenceable(4) %6, ptr noundef nonnull align 4 dereferenceable(4) %5)
  ret void
}