; Function Attrs: mustprogress nofree norecurse nosync nounwind willreturn memory(argmem: write) uwtable
define void @_ZN2cv9softfloatC2Ei(ptr nocapture noundef nonnull writeonly align 4 dereferenceable(4) %0, i32 noundef %1) unnamed_addr #0 align 2 {
  %3 = alloca %"struct.cv::softfloat", align 4
  %4 = icmp slt i32 %1, 0
  %5 = and i32 %1, 2147483647
  %.not.i = icmp eq i32 %5, 0
  br i1 %.not.i, label %6, label %8

6:                                                ; preds = %2
  %7 = select i1 %4, i32 -822083584, i32 0
  br label %_ZN2cvL10i32_to_f32Ei.exit

8:                                                ; preds = %2
  %9 = tail call i32 @llvm.abs.i32(i32 %1, i1 false)
  %10 = zext i32 %9 to i64
  call fastcc void @_ZN2cvL28softfloat_normRoundPackToF32Eblm(ptr dead_on_unwind noalias nonnull writable align 4 %3, i1 noundef zeroext %4, i64 noundef 156, i64 noundef %10), !alias.scope !10
  %.pre = load i32, ptr %3, align 4
  br label %_ZN2cvL10i32_to_f32Ei.exit

_ZN2cvL10i32_to_f32Ei.exit:                       ; preds = %8, %6
  %11 = phi i32 [ %.pre, %8 ], [ %7, %6 ]
  store i32 %11, ptr %0, align 4
  ret void
}